target datalayout = "e-m:e-p270:32:32-p271:32:32-p272:64:64-i64:64-i128:128-f80:128-n8:16:32:64-S128"
target triple = "x86_64-pc-linux-gnu"

%struct.lua_State = type { ptr, i8, i8, i8, i8, i16, %union.StkIdRel, ptr, ptr, %union.StkIdRel, %union.StkIdRel, ptr, %union.StkIdRel, ptr, ptr, ptr, %struct.CallInfo, ptr, i64, i32, i32, i32, i32, i32, %struct.anon.2 }
%union.StkIdRel = type { ptr }
%struct.CallInfo = type { %union.StkIdRel, %union.StkIdRel, ptr, ptr, %union.anon, %union.anon.1, i32 }
%union.anon = type { %struct.anon.0 }
%struct.anon.0 = type { ptr, i64, i64 }
%union.anon.1 = type { i32 }
%struct.anon.2 = type { i32, i32 }
%struct.global_State = type { ptr, ptr, i64, i64, i64, i64, %struct.stringtable, %struct.TValue, %struct.TValue, i32, [6 x i8], i8, i8, i8, i8, i8, i8, ptr, ptr, ptr, ptr, ptr, ptr, ptr, ptr, ptr, ptr, ptr, ptr, ptr, ptr, ptr, ptr, ptr, ptr, ptr, ptr, ptr, [25 x ptr], [9 x ptr], [53 x [2 x ptr]], ptr, ptr }
%struct.stringtable = type { ptr, i32, i32 }
%struct.TValue = type { %union.Value, i8 }
%union.Value = type { ptr }
%struct.GCObject = type { ptr, i8, i8 }
%struct.UpVal = type { ptr, i8, i8, %union.anon.4, %union.anon.5 }
%union.anon.4 = type { ptr }
%union.anon.5 = type { %struct.anon.6 }
%struct.anon.6 = type { ptr, ptr }
%struct.Udata = type { ptr, i8, i8, i16, i64, ptr, ptr, [1 x %union.UValue] }
%union.UValue = type { %struct.TValue }
%struct.Table = type { ptr, i8, i8, i8, i8, i32, ptr, ptr, ptr, ptr }
%struct.LClosure = type { ptr, i8, i8, i8, ptr, ptr, [1 x ptr] }
%struct.CClosure = type { ptr, i8, i8, i8, ptr, ptr, [1 x %struct.TValue] }
%struct.Proto = type { ptr, i8, i8, i8, i8, i8, i32, i32, i32, i32, i32, i32, i32, i32, i32, ptr, ptr, ptr, ptr, ptr, ptr, ptr, ptr, ptr }

; Function Attrs: nounwind uwtable
define internal void @linkgclist_(ptr noundef %0, ptr noundef %1, ptr noundef %2) #0 {
  %4 = alloca ptr, align 8
  %5 = alloca ptr, align 8
  %6 = alloca ptr, align 8
  store ptr %0, ptr %4, align 8, !tbaa !9
  store ptr %1, ptr %5, align 8, !tbaa !52
  store ptr %2, ptr %6, align 8, !tbaa !52
  %7 = load ptr, ptr %6, align 8, !tbaa !52
  %8 = load ptr, ptr %7, align 8, !tbaa !9
  %9 = load ptr, ptr %5, align 8, !tbaa !52
  store ptr %8, ptr %9, align 8, !tbaa !9
  %10 = load ptr, ptr %4, align 8, !tbaa !9
  %11 = load ptr, ptr %6, align 8, !tbaa !52
  store ptr %10, ptr %11, align 8, !tbaa !9
  %12 = load ptr, ptr %4, align 8, !tbaa !9
  %13 = getelementptr inbounds nuw %struct.GCObject, ptr %12, i32 0, i32 2
  %14 = load i8, ptr %13, align 1, !tbaa !30
  %15 = zext i8 %14 to i32
  %16 = and i32 %15, 199
  %17 = trunc i32 %16 to i8
  store i8 %17, ptr %13, align 1, !tbaa !30
  ret void
}

; Function Attrs: nounwind uwtable
define internal ptr @getgclist(ptr noundef %0) #0 {
  %2 = alloca ptr, align 8
  %3 = alloca ptr, align 8
  %4 = alloca ptr, align 8
  store ptr %0, ptr %3, align 8, !tbaa !9
  %5 = load ptr, ptr %3, align 8, !tbaa !9
  %6 = getelementptr inbounds nuw %struct.GCObject, ptr %5, i32 0, i32 1
  %7 = load i8, ptr %6, align 8, !tbaa !35
  %8 = zext i8 %7 to i32
  switch i32 %8, label %28 [
    i32 5, label %9
    i32 6, label %12
    i32 38, label %15
    i32 8, label %18
    i32 10, label %21
    i32 7, label %24
  ]

9:                                                ; preds = %1
  %10 = load ptr, ptr %3, align 8, !tbaa !9
  %11 = getelementptr inbounds nuw %struct.Table, ptr %10, i32 0, i32 9
  store ptr %11, ptr %2, align 8
  br label %29

12:                                               ; preds = %1
  %13 = load ptr, ptr %3, align 8, !tbaa !9
  %14 = getelementptr inbounds nuw %struct.LClosure, ptr %13, i32 0, i32 4
  store ptr %14, ptr %2, align 8
  br label %29

15:                                               ; preds = %1
  %16 = load ptr, ptr %3, align 8, !tbaa !9
  %17 = getelementptr inbounds nuw %struct.CClosure, ptr %16, i32 0, i32 4
  store ptr %17, ptr %2, align 8
  br label %29

18:                                               ; preds = %1
  %19 = load ptr, ptr %3, align 8, !tbaa !9
  %20 = getelementptr inbounds nuw %struct.lua_State, ptr %19, i32 0, i32 13
  store ptr %20, ptr %2, align 8
  br label %29

21:                                               ; preds = %1
  %22 = load ptr, ptr %3, align 8, !tbaa !9
  %23 = getelementptr inbounds nuw %struct.Proto, ptr %22, i32 0, i32 23
  store ptr %23, ptr %2, align 8
  br label %29

24:                                               ; preds = %1
  call void @llvm.lifetime.start.p0(i64 8, ptr %4) #6
  %25 = load ptr, ptr %3, align 8, !tbaa !9
  store ptr %25, ptr %4, align 8, !tbaa !41
  %26 = load ptr, ptr %4, align 8, !tbaa !41
  %27 = getelementptr inbounds nuw %struct.Udata, ptr %26, i32 0, i32 6
  store ptr %27, ptr %2, align 8
  call void @llvm.lifetime.end.p0(i64 8, ptr %4) #6
  br label %29

28:                                               ; preds = %1
  store ptr null, ptr %2, align 8
  br label %29

29:                                               ; preds = %28, %24, %21, %18, %15, %12, %9
  %30 = load ptr, ptr %2, align 8
  ret ptr %30
}

; Function Attrs: nounwind uwtable
define internal void @reallymarkobject(ptr noundef %0, ptr noundef %1) #0 {
  %3 = alloca ptr, align 8
  %4 = alloca ptr, align 8
  %5 = alloca ptr, align 8
  %6 = alloca ptr, align 8
  %7 = alloca i32, align 4
  store ptr %0, ptr %3, align 8, !tbaa !22
  store ptr %1, ptr %4, align 8, !tbaa !9
  %8 = load ptr, ptr %4, align 8, !tbaa !9
  %9 = call i64 @objsize(ptr noundef %8)
  %10 = load ptr, ptr %3, align 8, !tbaa !22
  %11 = getelementptr inbounds nuw %struct.global_State, ptr %10, i32 0, i32 4
  %12 = load i64, ptr %11, align 8, !tbaa !34
  %13 = add nsw i64 %12, %9
  store i64 %13, ptr %11, align 8, !tbaa !34
  %14 = load ptr, ptr %4, align 8, !tbaa !9
  %15 = getelementptr inbounds nuw %struct.GCObject, ptr %14, i32 0, i32 1
  %16 = load i8, ptr %15, align 8, !tbaa !35
  %17 = zext i8 %16 to i32
  switch i32 %17, label %128 [
    i32 4, label %18
    i32 20, label %18
    i32 9, label %28
    i32 7, label %81
    i32 6, label %122
    i32 38, label %122
    i32 5, label %122
    i32 8, label %122
    i32 10, label %122
  ]

18:                                               ; preds = %2, %2
  %19 = load ptr, ptr %4, align 8, !tbaa !9
  %20 = getelementptr inbounds nuw %struct.GCObject, ptr %19, i32 0, i32 2
  %21 = load i8, ptr %20, align 1, !tbaa !30
  %22 = zext i8 %21 to i32
  %23 = and i32 %22, -25
  %24 = or i32 %23, 32
  %25 = trunc i32 %24 to i8
  %26 = load ptr, ptr %4, align 8, !tbaa !9
  %27 = getelementptr inbounds nuw %struct.GCObject, ptr %26, i32 0, i32 2
  store i8 %25, ptr %27, align 1, !tbaa !30
  br label %129

28:                                               ; preds = %2
  call void @llvm.lifetime.start.p0(i64 8, ptr %5) #6
  %29 = load ptr, ptr %4, align 8, !tbaa !9
  store ptr %29, ptr %5, align 8, !tbaa !36
  %30 = load ptr, ptr %5, align 8, !tbaa !36
  %31 = getelementptr inbounds nuw %struct.UpVal, ptr %30, i32 0, i32 3
  %32 = load ptr, ptr %31, align 8, !tbaa !37
  %33 = load ptr, ptr %5, align 8, !tbaa !36
  %34 = getelementptr inbounds nuw %struct.UpVal, ptr %33, i32 0, i32 4
  %35 = icmp ne ptr %32, %34
  br i1 %35, label %36, label %43

36:                                               ; preds = %28
  %37 = load ptr, ptr %5, align 8, !tbaa !36
  %38 = getelementptr inbounds nuw %struct.UpVal, ptr %37, i32 0, i32 2
  %39 = load i8, ptr %38, align 1, !tbaa !38
  %40 = zext i8 %39 to i32
  %41 = and i32 %40, 199
  %42 = trunc i32 %41 to i8
  store i8 %42, ptr %38, align 1, !tbaa !38
  br label %53

43:                                               ; preds = %28
  %44 = load ptr, ptr %5, align 8, !tbaa !36
  %45 = getelementptr inbounds nuw %struct.UpVal, ptr %44, i32 0, i32 2
  %46 = load i8, ptr %45, align 1, !tbaa !38
  %47 = zext i8 %46 to i32
  %48 = and i32 %47, -25
  %49 = or i32 %48, 32
  %50 = trunc i32 %49 to i8
  %51 = load ptr, ptr %5, align 8, !tbaa !36
  %52 = getelementptr inbounds nuw %struct.UpVal, ptr %51, i32 0, i32 2
  store i8 %50, ptr %52, align 1, !tbaa !38
  br label %53

53:                                               ; preds = %43, %36
  %54 = load ptr, ptr %5, align 8, !tbaa !36
  %55 = getelementptr inbounds nuw %struct.UpVal, ptr %54, i32 0, i32 3
  %56 = load ptr, ptr %55, align 8, !tbaa !37
  %57 = getelementptr inbounds nuw %struct.TValue, ptr %56, i32 0, i32 1
  %58 = load i8, ptr %57, align 8, !tbaa !40
  %59 = zext i8 %58 to i32
  %60 = and i32 %59, 64
  %61 = icmp ne i32 %60, 0
  br i1 %61, label %62, label %80

62:                                               ; preds = %53
  %63 = load ptr, ptr %5, align 8, !tbaa !36
  %64 = getelementptr inbounds nuw %struct.UpVal, ptr %63, i32 0, i32 3
  %65 = load ptr, ptr %64, align 8, !tbaa !37
  %66 = getelementptr inbounds nuw %struct.TValue, ptr %65, i32 0, i32 0
  %67 = load ptr, ptr %66, align 8, !tbaa !37
  %68 = getelementptr inbounds nuw %struct.GCObject, ptr %67, i32 0, i32 2
  %69 = load i8, ptr %68, align 1, !tbaa !30
  %70 = zext i8 %69 to i32
  %71 = and i32 %70, 24
  %72 = icmp ne i32 %71, 0
  br i1 %72, label %73, label %80

73:                                               ; preds = %62
  %74 = load ptr, ptr %3, align 8, !tbaa !22
  %75 = load ptr, ptr %5, align 8, !tbaa !36
  %76 = getelementptr inbounds nuw %struct.UpVal, ptr %75, i32 0, i32 3
  %77 = load ptr, ptr %76, align 8, !tbaa !37
  %78 = getelementptr inbounds nuw %struct.TValue, ptr %77, i32 0, i32 0
  %79 = load ptr, ptr %78, align 8, !tbaa !37
  call void @reallymarkobject(ptr noundef %74, ptr noundef %79)
  br label %80

80:                                               ; preds = %73, %62, %53
  call void @llvm.lifetime.end.p0(i64 8, ptr %5) #6
  br label %129

81:                                               ; preds = %2
  call void @llvm.lifetime.start.p0(i64 8, ptr %6) #6
  %82 = load ptr, ptr %4, align 8, !tbaa !9
  store ptr %82, ptr %6, align 8, !tbaa !41
  %83 = load ptr, ptr %6, align 8, !tbaa !41
  %84 = getelementptr inbounds nuw %struct.Udata, ptr %83, i32 0, i32 3
  %85 = load i16, ptr %84, align 2, !tbaa !43
  %86 = zext i16 %85 to i32
  %87 = icmp eq i32 %86, 0
  br i1 %87, label %88, label %118

88:                                               ; preds = %81
  %89 = load ptr, ptr %6, align 8, !tbaa !41
  %90 = getelementptr inbounds nuw %struct.Udata, ptr %89, i32 0, i32 5
  %91 = load ptr, ptr %90, align 8, !tbaa !46
  %92 = icmp ne ptr %91, null
  br i1 %92, label %93, label %108

93:                                               ; preds = %88
  %94 = load ptr, ptr %6, align 8, !tbaa !41
  %95 = getelementptr inbounds nuw %struct.Udata, ptr %94, i32 0, i32 5
  %96 = load ptr, ptr %95, align 8, !tbaa !46
  %97 = getelementptr inbounds nuw %struct.Table, ptr %96, i32 0, i32 2
  %98 = load i8, ptr %97, align 1, !tbaa !47
  %99 = zext i8 %98 to i32
  %100 = and i32 %99, 24
  %101 = icmp ne i32 %100, 0
  br i1 %101, label %102, label %107

102:                                              ; preds = %93
  %103 = load ptr, ptr %3, align 8, !tbaa !22
  %104 = load ptr, ptr %6, align 8, !tbaa !41
  %105 = getelementptr inbounds nuw %struct.Udata, ptr %104, i32 0, i32 5
  %106 = load ptr, ptr %105, align 8, !tbaa !46
  call void @reallymarkobject(ptr noundef %103, ptr noundef %106)
  br label %107

107:                                              ; preds = %102, %93
  br label %108

108:                                              ; preds = %107, %88
  %109 = load ptr, ptr %6, align 8, !tbaa !41
  %110 = getelementptr inbounds nuw %struct.Udata, ptr %109, i32 0, i32 2
  %111 = load i8, ptr %110, align 1, !tbaa !51
  %112 = zext i8 %111 to i32
  %113 = and i32 %112, -25
  %114 = or i32 %113, 32
  %115 = trunc i32 %114 to i8
  %116 = load ptr, ptr %6, align 8, !tbaa !41
  %117 = getelementptr inbounds nuw %struct.Udata, ptr %116, i32 0, i32 2
  store i8 %115, ptr %117, align 1, !tbaa !51
  store i32 2, ptr %7, align 4
  br label %119

118:                                              ; preds = %81
  store i32 0, ptr %7, align 4
  br label %119

119:                                              ; preds = %118, %108
  call void @llvm.lifetime.end.p0(i64 8, ptr %6) #6
  %120 = load i32, ptr %7, align 4
  switch i32 %120, label %130 [
    i32 0, label %121
    i32 2, label %129
  ]

121:                                              ; preds = %119
  br label %122

122:                                              ; preds = %2, %2, %2, %2, %2, %121
  %123 = load ptr, ptr %4, align 8, !tbaa !9
  %124 = load ptr, ptr %4, align 8, !tbaa !9
  %125 = call ptr @getgclist(ptr noundef %124)
  %126 = load ptr, ptr %3, align 8, !tbaa !22
  %127 = getelementptr inbounds nuw %struct.global_State, ptr %126, i32 0, i32 20
  call void @linkgclist_(ptr noundef %123, ptr noundef %125, ptr noundef %127)
  br label %129

128:                                              ; preds = %2
  br label %129

129:                                              ; preds = %128, %122, %119, %80, %18
  ret void

130:                                              ; preds = %119
  unreachable
}